; Function Attrs: mustprogress nounwind uwtable
define hidden noundef i64 @_ZNK9JfrBuffer14unflushed_sizeEv(ptr noundef nonnull align 8 dereferenceable(48) %0) local_unnamed_addr #1 align 2 {
  %2 = getelementptr inbounds i8, ptr %0, i64 16
  %3 = load ptr, ptr %2, align 8
  %4 = getelementptr inbounds i8, ptr %0, i64 24
  br label %5

5:                                                ; preds = %5, %1
  %6 = load volatile ptr, ptr %4, align 8
  tail call void asm sideeffect "", "~{memory},~{dirflag},~{fpsr},~{flags}"() #6, !srcloc !6
  %7 = icmp eq ptr %6, null
  br i1 %7, label %5, label %_ZNK9JfrBuffer10stable_topEv.exit, !llvm.loop !10

_ZNK9JfrBuffer10stable_topEv.exit:                ; preds = %5
  %8 = ptrtoint ptr %3 to i64
  %9 = ptrtoint ptr %6 to i64
  %10 = sub i64 %8, %9
  ret i64 %10
}